; Function Attrs: mustprogress uwtable
define void @_ZN11LayerDialog36updateRenderingDataAccordingToActionEiP17MLRenderingAction(ptr noundef nonnull align 8 dereferenceable(256) %0, i32 noundef %1, ptr noundef %2) local_unnamed_addr #9 align 2 {
  %4 = getelementptr inbounds i8, ptr %0, i64 56
  %5 = load ptr, ptr %4, align 8
  %6 = icmp eq ptr %5, null
  br i1 %6, label %19, label %7

7:                                                ; preds = %3
  %8 = getelementptr inbounds i8, ptr %0, i64 240
  %9 = load ptr, ptr %8, align 8
  %10 = tail call noundef zeroext i1 @_ZNK15QAbstractButton9isCheckedEv(ptr noundef nonnull align 8 dereferenceable(48) %9)
  br i1 %10, label %17, label %11

11:                                               ; preds = %7
  %12 = tail call noundef ptr @_ZNK7QObject6senderEv(ptr noundef nonnull align 8 dereferenceable(16) %0)
  %13 = tail call noundef ptr @_ZNK11QMetaObject4castEP7QObject(ptr noundef nonnull align 8 dereferenceable(48) @_ZN22MLRenderingSideToolbar16staticMetaObjectE, ptr noundef %12)
  %14 = icmp eq ptr %13, null
  br i1 %14, label %15, label %19

15:                                               ; preds = %11
  %16 = load ptr, ptr %4, align 8
  tail call void @_ZN10MainWindow36updateRenderingDataAccordingToActionEiP17MLRenderingAction(ptr noundef nonnull align 8 dereferenceable(1376) %16, i32 noundef %1, ptr noundef %2)
  br label %19

17:                                               ; preds = %7
  %18 = load ptr, ptr %4, align 8
  tail call void @_ZN10MainWindow54updateRenderingDataAccordingToActionToAllVisibleLayersEP17MLRenderingAction(ptr noundef nonnull align 8 dereferenceable(1376) %18, ptr noundef %2)
  br label %19

19:                                               ; preds = %11, %15, %3, %17
  ret void
}